target datalayout = "e-m:e-p270:32:32-p271:32:32-p272:64:64-i64:64-i128:128-f80:128-n8:16:32:64-S128"
target triple = "x86_64-pc-linux-gnu"

%struct.RBasic = type { i64, i64 }
%struct.RString = type { %struct.RBasic, i64, %union.anon.33 }
%union.anon.33 = type { %struct.anon.34 }
%struct.anon.34 = type { ptr, %union.anon.35 }
%union.anon.35 = type { i64 }
%struct.getpwnam_r_args = type { ptr, ptr, i64, ptr, %struct.passwd }
%struct.passwd = type { ptr, ptr, i32, i32, ptr, ptr, ptr }
%struct.anon.36 = type { [1 x i8] }

@.str.20 = private unnamed_addr constant [11 x i8] c"getpwnam_r\00", align 1

; Function Attrs: inlinehint nounwind sspstrong willreturn memory(read) uwtable
define internal i64 @RB_FL_TEST_RAW(i64 noundef %0, i64 noundef %1) #5 {
  %3 = alloca i64, align 8
  %4 = alloca i64, align 8
  store i64 %0, ptr %3, align 8, !tbaa !35
  store i64 %1, ptr %4, align 8, !tbaa !35
  %5 = load i64, ptr %3, align 8, !tbaa !35
  %6 = inttoptr i64 %5 to ptr
  %7 = getelementptr inbounds nuw %struct.RBasic, ptr %6, i32 0, i32 0
  %8 = load i64, ptr %7, align 8, !tbaa !215
  %9 = load i64, ptr %4, align 8, !tbaa !35
  %10 = and i64 %8, %9
  ret i64 %10
}

; Function Attrs: inlinehint nounwind sspstrong willreturn memory(read) uwtable
define internal i64 @RSTRING_LEN(i64 noundef %0) #5 {
  %2 = alloca i64, align 8
  store i64 %0, ptr %2, align 8, !tbaa !35
  %3 = load i64, ptr %2, align 8, !tbaa !35
  %4 = inttoptr i64 %3 to ptr
  %5 = getelementptr inbounds nuw %struct.RString, ptr %4, i32 0, i32 1
  %6 = load i64, ptr %5, align 8, !tbaa !266
  ret i64 %6
}

; Function Attrs: inlinehint nounwind sspstrong willreturn memory(read) uwtable
define internal zeroext i1 @RB_FL_ANY_RAW(i64 noundef %0, i64 noundef %1) #5 {
  %3 = alloca i64, align 8
  %4 = alloca i64, align 8
  store i64 %0, ptr %3, align 8, !tbaa !35
  store i64 %1, ptr %4, align 8, !tbaa !35
  %5 = load i64, ptr %3, align 8, !tbaa !35
  %6 = load i64, ptr %4, align 8, !tbaa !35
  %7 = call i64 @RB_FL_TEST_RAW(i64 noundef %5, i64 noundef %6) #29
  %8 = icmp ne i64 %7, 0
  ret i1 %8
}

; Function Attrs: inlinehint nounwind sspstrong willreturn memory(read, argmem: readwrite) uwtable
define internal void @rbimpl_rstring_getmem(ptr dead_on_unwind noalias writable sret(%struct.RString) align 8 %0, i64 noundef %1) #21 {
  %3 = alloca i64, align 8
  store i64 %1, ptr %3, align 8, !tbaa !35
  %4 = load i64, ptr %3, align 8, !tbaa !35
  %5 = call zeroext i1 @RB_FL_ANY_RAW(i64 noundef %4, i64 noundef 8192) #29
  br i1 %5, label %6, label %9

6:                                                ; preds = %2
  %7 = load i64, ptr %3, align 8, !tbaa !35
  %8 = inttoptr i64 %7 to ptr
  call void @llvm.memcpy.p0.p0.i64(ptr align 8 %0, ptr align 8 %8, i64 40, i1 false), !tbaa.struct !274
  br label %20

9:                                                ; preds = %2
  %10 = load i64, ptr %3, align 8, !tbaa !35
  %11 = call i64 @RSTRING_LEN(i64 noundef %10) #29
  %12 = getelementptr inbounds nuw %struct.RString, ptr %0, i32 0, i32 1
  store i64 %11, ptr %12, align 8, !tbaa !266
  %13 = load i64, ptr %3, align 8, !tbaa !35
  %14 = inttoptr i64 %13 to ptr
  %15 = getelementptr inbounds nuw %struct.RString, ptr %14, i32 0, i32 2
  %16 = getelementptr inbounds nuw %struct.anon.36, ptr %15, i32 0, i32 0
  %17 = getelementptr inbounds [1 x i8], ptr %16, i64 0, i64 0
  %18 = getelementptr inbounds nuw %struct.RString, ptr %0, i32 0, i32 2
  %19 = getelementptr inbounds nuw %struct.anon.34, ptr %18, i32 0, i32 0
  store ptr %17, ptr %19, align 8, !tbaa !66
  br label %20

20:                                               ; preds = %9, %6
  ret void
}

; Function Attrs: inlinehint nounwind sspstrong uwtable
define internal zeroext i1 @pwd_not_found(i32 noundef %0) #1 {
  %2 = alloca i1, align 1
  %3 = alloca i32, align 4
  store i32 %0, ptr %3, align 4, !tbaa !34
  %4 = load i32, ptr %3, align 4, !tbaa !34
  switch i32 %4, label %6 [
    i32 0, label %5
    i32 2, label %5
    i32 3, label %5
    i32 9, label %5
    i32 1, label %5
  ]

5:                                                ; preds = %1, %1, %1, %1, %1
  store i1 true, ptr %2, align 1
  br label %7

6:                                                ; preds = %1
  store i1 false, ptr %2, align 1
  br label %7

7:                                                ; preds = %6, %5
  %8 = load i1, ptr %2, align 1
  ret i1 %8
}

; Function Attrs: inlinehint nounwind sspstrong uwtable
define internal ptr @RSTRING_PTR(i64 noundef %0) #1 {
  %2 = alloca i64, align 8
  %3 = alloca ptr, align 8
  %4 = alloca %struct.RString, align 8
  store i64 %0, ptr %2, align 8, !tbaa !35
  call void @llvm.lifetime.start.p0(i64 8, ptr %3) #27
  %5 = load i64, ptr %2, align 8, !tbaa !35
  call void @rbimpl_rstring_getmem(ptr dead_on_unwind writable sret(%struct.RString) align 8 %4, i64 noundef %5) #33
  %6 = getelementptr inbounds nuw %struct.RString, ptr %4, i32 0, i32 2
  %7 = getelementptr inbounds nuw %struct.anon.34, ptr %6, i32 0, i32 0
  %8 = load ptr, ptr %7, align 8, !tbaa !66
  store ptr %8, ptr %3, align 8, !tbaa !64
  %9 = load ptr, ptr %3, align 8, !tbaa !64
  call void @llvm.lifetime.end.p0(i64 8, ptr %3) #27
  ret ptr %9
}

; Function Attrs: inlinehint nounwind sspstrong willreturn memory(none) uwtable
define internal zeroext i1 @RB_NIL_P(i64 noundef %0) #4 {
  %2 = alloca i64, align 8
  store i64 %0, ptr %2, align 8, !tbaa !35
  %3 = load i64, ptr %2, align 8, !tbaa !35
  %4 = icmp eq i64 %3, 4
  ret i1 %4
}

; Function Attrs: nounwind sspstrong uwtable
define hidden i64 @rb_getpwdirnam_for_login(i64 noundef %0) #0 {
  %2 = alloca i64, align 8
  %3 = alloca i64, align 8
  %4 = alloca ptr, align 8
  %5 = alloca ptr, align 8
  %6 = alloca i64, align 8
  %7 = alloca i64, align 8
  %8 = alloca %struct.getpwnam_r_args, align 8
  %9 = alloca i32, align 4
  %10 = alloca i32, align 4
  %11 = alloca i64, align 8
  store i64 %0, ptr %3, align 8, !tbaa !35
  %12 = load i64, ptr %3, align 8, !tbaa !35
  %13 = call zeroext i1 @RB_NIL_P(i64 noundef %12) #28
  br i1 %13, label %14, label %15

14:                                               ; preds = %1
  store i64 4, ptr %2, align 8
  br label %88

15:                                               ; preds = %1
  call void @llvm.lifetime.start.p0(i64 8, ptr %4) #27
  %16 = load i64, ptr %3, align 8, !tbaa !35
  %17 = call ptr @RSTRING_PTR(i64 noundef %16)
  store ptr %17, ptr %4, align 8, !tbaa !64
  call void @llvm.lifetime.start.p0(i64 8, ptr %5) #27
  call void @llvm.lifetime.start.p0(i64 8, ptr %6) #27
  %18 = call i64 @sysconf(i32 noundef 70) #27
  store i64 %18, ptr %6, align 8, !tbaa !35
  %19 = load i64, ptr %6, align 8, !tbaa !35
  %20 = icmp slt i64 %19, 0
  br i1 %20, label %21, label %22

21:                                               ; preds = %15
  store i64 4096, ptr %6, align 8, !tbaa !35
  br label %22

22:                                               ; preds = %21, %15
  call void @llvm.lifetime.start.p0(i64 8, ptr %7) #27
  %23 = load i64, ptr %6, align 8, !tbaa !35
  %24 = call i64 @rb_str_tmp_new(i64 noundef %23)
  store i64 %24, ptr %7, align 8, !tbaa !35
  %25 = load i64, ptr %7, align 8, !tbaa !35
  %26 = call ptr @RSTRING_PTR(i64 noundef %25)
  store ptr %26, ptr %5, align 8, !tbaa !64
  %27 = load i64, ptr %7, align 8, !tbaa !35
  %28 = call i64 @rb_str_capacity(i64 noundef %27) #29
  store i64 %28, ptr %6, align 8, !tbaa !35
  %29 = load i64, ptr %7, align 8, !tbaa !35
  %30 = load i64, ptr %6, align 8, !tbaa !35
  call void @rb_str_set_len(i64 noundef %29, i64 noundef %30)
  call void @llvm.lifetime.start.p0(i64 80, ptr %8) #27
  %31 = getelementptr inbounds nuw %struct.getpwnam_r_args, ptr %8, i32 0, i32 0
  %32 = load ptr, ptr %4, align 8, !tbaa !64
  store ptr %32, ptr %31, align 8, !tbaa !159
  %33 = getelementptr inbounds nuw %struct.getpwnam_r_args, ptr %8, i32 0, i32 1
  %34 = load ptr, ptr %5, align 8, !tbaa !64
  store ptr %34, ptr %33, align 8, !tbaa !163
  %35 = getelementptr inbounds nuw %struct.getpwnam_r_args, ptr %8, i32 0, i32 2
  %36 = load i64, ptr %6, align 8, !tbaa !35
  store i64 %36, ptr %35, align 8, !tbaa !164
  %37 = getelementptr inbounds nuw %struct.getpwnam_r_args, ptr %8, i32 0, i32 3
  store ptr null, ptr %37, align 8, !tbaa !165
  %38 = getelementptr inbounds nuw %struct.getpwnam_r_args, ptr %8, i32 0, i32 4
  call void @llvm.memset.p0.i64(ptr align 8 %38, i8 0, i64 48, i1 false)
  call void @llvm.lifetime.start.p0(i64 4, ptr %9) #27
  br label %39

39:                                               ; preds = %61, %22
  %40 = call ptr @rb_nogvl(ptr noundef @nogvl_getpwnam_r, ptr noundef %8, ptr noundef inttoptr (i64 -1 to ptr), ptr noundef null, i32 noundef 4)
  %41 = ptrtoint ptr %40 to i64
  %42 = trunc i64 %41 to i32
  store i32 %42, ptr %9, align 4, !tbaa !34
  %43 = icmp ne i32 %42, 0
  br i1 %43, label %44, label %71

44:                                               ; preds = %39
  %45 = load i32, ptr %9, align 4, !tbaa !34
  %46 = call zeroext i1 @pwd_not_found(i32 noundef %45)
  br i1 %46, label %47, label %50

47:                                               ; preds = %44
  %48 = load i64, ptr %7, align 8, !tbaa !35
  %49 = call i64 @rb_str_resize(i64 noundef %48, i64 noundef 0)
  store i64 4, ptr %2, align 8
  store i32 1, ptr %10, align 4
  br label %87

50:                                               ; preds = %44
  %51 = load i32, ptr %9, align 4, !tbaa !34
  %52 = icmp ne i32 %51, 34
  br i1 %52, label %57, label %53

53:                                               ; preds = %50
  %54 = getelementptr inbounds nuw %struct.getpwnam_r_args, ptr %8, i32 0, i32 2
  %55 = load i64, ptr %54, align 8, !tbaa !164
  %56 = icmp uge i64 %55, 65536
  br i1 %56, label %57, label %61

57:                                               ; preds = %53, %50
  %58 = load i64, ptr %7, align 8, !tbaa !35
  %59 = call i64 @rb_str_resize(i64 noundef %58, i64 noundef 0)
  %60 = load i32, ptr %9, align 4, !tbaa !34
  call void @rb_syserr_fail(i32 noundef %60, ptr noundef @.str.20) #30
  unreachable

61:                                               ; preds = %53
  %62 = load i64, ptr %7, align 8, !tbaa !35
  %63 = getelementptr inbounds nuw %struct.getpwnam_r_args, ptr %8, i32 0, i32 2
  %64 = load i64, ptr %63, align 8, !tbaa !164
  call void @rb_str_modify_expand(i64 noundef %62, i64 noundef %64)
  %65 = load i64, ptr %7, align 8, !tbaa !35
  %66 = call ptr @RSTRING_PTR(i64 noundef %65)
  %67 = getelementptr inbounds nuw %struct.getpwnam_r_args, ptr %8, i32 0, i32 1
  store ptr %66, ptr %67, align 8, !tbaa !163
  %68 = load i64, ptr %7, align 8, !tbaa !35
  %69 = call i64 @rb_str_capacity(i64 noundef %68) #29
  %70 = getelementptr inbounds nuw %struct.getpwnam_r_args, ptr %8, i32 0, i32 2
  store i64 %69, ptr %70, align 8, !tbaa !164
  br label %39, !llvm.loop !166

71:                                               ; preds = %39
  %72 = getelementptr inbounds nuw %struct.getpwnam_r_args, ptr %8, i32 0, i32 3
  %73 = load ptr, ptr %72, align 8, !tbaa !165
  %74 = icmp eq ptr %73, null
  br i1 %74, label %75, label %78

75:                                               ; preds = %71
  %76 = load i64, ptr %7, align 8, !tbaa !35
  %77 = call i64 @rb_str_resize(i64 noundef %76, i64 noundef 0)
  store i64 4, ptr %2, align 8
  store i32 1, ptr %10, align 4
  br label %87

78:                                               ; preds = %71
  call void @llvm.lifetime.start.p0(i64 8, ptr %11) #27
  %79 = getelementptr inbounds nuw %struct.getpwnam_r_args, ptr %8, i32 0, i32 3
  %80 = load ptr, ptr %79, align 8, !tbaa !165
  %81 = getelementptr inbounds nuw %struct.passwd, ptr %80, i32 0, i32 5
  %82 = load ptr, ptr %81, align 8, !tbaa !167
  %83 = call i64 @rb_str_new_cstr(ptr noundef %82)
  store i64 %83, ptr %11, align 8, !tbaa !35
  %84 = load i64, ptr %7, align 8, !tbaa !35
  %85 = call i64 @rb_str_resize(i64 noundef %84, i64 noundef 0)
  %86 = load i64, ptr %11, align 8, !tbaa !35
  store i64 %86, ptr %2, align 8
  store i32 1, ptr %10, align 4
  call void @llvm.lifetime.end.p0(i64 8, ptr %11) #27
  br label %87

87:                                               ; preds = %78, %75, %47
  call void @llvm.lifetime.end.p0(i64 4, ptr %9) #27
  call void @llvm.lifetime.end.p0(i64 80, ptr %8) #27
  call void @llvm.lifetime.end.p0(i64 8, ptr %7) #27
  call void @llvm.lifetime.end.p0(i64 8, ptr %6) #27
  call void @llvm.lifetime.end.p0(i64 8, ptr %5) #27
  call void @llvm.lifetime.end.p0(i64 8, ptr %4) #27
  br label %88

88:                                               ; preds = %87, %14
  %89 = load i64, ptr %2, align 8
  ret i64 %89
}