; Function Attrs: nounwind sspstrong uwtable
define hidden i64 @rb_getpwdirnam_for_login(i64 noundef %0) local_unnamed_addr #1 {
  %2 = alloca %struct.getpwnam_r_args, align 8
  %3 = icmp eq i64 %0, 4
  br i1 %3, label %44, label %4

4:                                                ; preds = %1
  %5 = inttoptr i64 %0 to ptr
  %6 = load i64, ptr %5, align 8, !tbaa !69, !noalias !210
  %7 = and i64 %6, 8192
  %.not.i.i = icmp eq i64 %7, 0
  %8 = getelementptr inbounds nuw i8, ptr %5, i64 24
  br i1 %.not.i.i, label %RSTRING_PTR.exit, label %9

9:                                                ; preds = %4
  %.sroa.2.0.copyload.i = load ptr, ptr %8, align 8
  br label %RSTRING_PTR.exit

RSTRING_PTR.exit:                                 ; preds = %4, %9
  %.sroa.2.0.i = phi ptr [ %.sroa.2.0.copyload.i, %9 ], [ %8, %4 ]
  %10 = tail call i64 @sysconf(i32 noundef 70) #27
  %11 = icmp slt i64 %10, 0
  %spec.store.select = select i1 %11, i64 4096, i64 %10
  %12 = tail call i64 @rb_str_tmp_new(i64 noundef %spec.store.select) #27
  %13 = inttoptr i64 %12 to ptr
  %14 = load i64, ptr %13, align 8, !tbaa !69, !noalias !213
  %15 = and i64 %14, 8192
  %.not.i.i27 = icmp eq i64 %15, 0
  %16 = getelementptr inbounds nuw i8, ptr %13, i64 24
  br i1 %.not.i.i27, label %RSTRING_PTR.exit30, label %17

17:                                               ; preds = %RSTRING_PTR.exit
  %.sroa.2.0.copyload.i28 = load ptr, ptr %16, align 8
  br label %RSTRING_PTR.exit30

RSTRING_PTR.exit30:                               ; preds = %RSTRING_PTR.exit, %17
  %.sroa.2.0.i29 = phi ptr [ %.sroa.2.0.copyload.i28, %17 ], [ %16, %RSTRING_PTR.exit ]
  %18 = tail call i64 @rb_str_capacity(i64 noundef %12) #28
  tail call void @rb_str_set_len(i64 noundef %12, i64 noundef %18) #27
  call void @llvm.lifetime.start.p0(i64 80, ptr nonnull %2) #27
  store ptr %.sroa.2.0.i, ptr %2, align 8, !tbaa !216
  %19 = getelementptr inbounds nuw i8, ptr %2, i64 8
  store ptr %.sroa.2.0.i29, ptr %19, align 8, !tbaa !220
  %20 = getelementptr inbounds nuw i8, ptr %2, i64 16
  store i64 %18, ptr %20, align 8, !tbaa !221
  %21 = getelementptr inbounds nuw i8, ptr %2, i64 24
  call void @llvm.memset.p0.i64(ptr noundef nonnull align 8 dereferenceable(56) %21, i8 0, i64 56, i1 false)
  br label %22

22:                                               ; preds = %RSTRING_PTR.exit34, %RSTRING_PTR.exit30
  %23 = call ptr @rb_nogvl(ptr noundef nonnull @nogvl_getpwnam_r, ptr noundef nonnull %2, ptr noundef nonnull inttoptr (i64 -1 to ptr), ptr noundef null, i32 noundef 4) #27
  %24 = ptrtoint ptr %23 to i64
  %25 = trunc i64 %24 to i32
  switch i32 %25, label %pwd_not_found.exit [
    i32 0, label %36
    i32 1, label %.loopexit
    i32 2, label %.loopexit
    i32 3, label %.loopexit
    i32 9, label %.loopexit
  ]

pwd_not_found.exit:                               ; preds = %22
  %26 = icmp ne i32 %25, 34
  %27 = load i64, ptr %20, align 8
  %28 = icmp ugt i64 %27, 65535
  %or.cond = select i1 %26, i1 true, i1 %28
  br i1 %or.cond, label %29, label %31

29:                                               ; preds = %pwd_not_found.exit
  %30 = call i64 @rb_str_resize(i64 noundef %12, i64 noundef 0) #27
  call void @rb_syserr_fail(i32 noundef %25, ptr noundef nonnull @.str.20) #29
  unreachable

31:                                               ; preds = %pwd_not_found.exit
  call void @rb_str_modify_expand(i64 noundef %12, i64 noundef %27) #27
  %32 = load i64, ptr %13, align 8, !tbaa !69, !noalias !222
  %33 = and i64 %32, 8192
  %.not.i.i31 = icmp eq i64 %33, 0
  br i1 %.not.i.i31, label %RSTRING_PTR.exit34, label %34

34:                                               ; preds = %31
  %.sroa.2.0.copyload.i32 = load ptr, ptr %16, align 8
  br label %RSTRING_PTR.exit34

RSTRING_PTR.exit34:                               ; preds = %31, %34
  %.sroa.2.0.i33 = phi ptr [ %.sroa.2.0.copyload.i32, %34 ], [ %16, %31 ]
  store ptr %.sroa.2.0.i33, ptr %19, align 8, !tbaa !220
  %35 = call i64 @rb_str_capacity(i64 noundef %12) #28
  store i64 %35, ptr %20, align 8, !tbaa !221
  br label %22, !llvm.loop !225

36:                                               ; preds = %22
  %37 = load ptr, ptr %21, align 8, !tbaa !226
  %38 = icmp eq ptr %37, null
  br i1 %38, label %.loopexit, label %39

39:                                               ; preds = %36
  %40 = getelementptr inbounds nuw i8, ptr %37, i64 32
  %41 = load ptr, ptr %40, align 8, !tbaa !227
  %42 = call i64 @rb_str_new_cstr(ptr noundef %41) #27
  br label %.loopexit

.loopexit:                                        ; preds = %22, %22, %22, %22, %36, %39
  %.1 = phi i64 [ %42, %39 ], [ 4, %36 ], [ 4, %22 ], [ 4, %22 ], [ 4, %22 ], [ 4, %22 ]
  %43 = call i64 @rb_str_resize(i64 noundef %12, i64 noundef 0) #27
  call void @llvm.lifetime.end.p0(i64 80, ptr nonnull %2) #27
  br label %44

44:                                               ; preds = %1, %.loopexit
  %.0 = phi i64 [ %.1, %.loopexit ], [ 4, %1 ]
  ret i64 %.0
}